target datalayout = "e-m:e-p270:32:32-p271:32:32-p272:64:64-i64:64-i128:128-f80:128-n8:16:32:64-S128"
target triple = "x86_64-pc-linux-gnu"

%struct.Abc_Ntk_t_ = type { i32, i32, ptr, ptr, ptr, ptr, ptr, ptr, ptr, ptr, ptr, ptr, ptr, [11 x i32], i32, i32, i32, i32, ptr, i32, ptr, ptr, i32, i32, i32, double, i32, %struct.Vec_Int_t_, ptr, ptr, ptr, ptr, ptr, float, i32, ptr, ptr, ptr, ptr, ptr, ptr, ptr, ptr, ptr, ptr, ptr, ptr, ptr, ptr, ptr, ptr, ptr, ptr, ptr, ptr, ptr, ptr }
%struct.Vec_Int_t_ = type { i32, i32, ptr }
%struct.Vec_Ptr_t_ = type { i32, i32, ptr }

@.str = private unnamed_addr constant [31 x i8] c"Miter computation has failed.\0A\00", align 1
@.str.1 = private unnamed_addr constant [55 x i8] c"Networks are NOT EQUIVALENT after structural hashing.\0A\00", align 1
@.str.2 = private unnamed_addr constant [51 x i8] c"Networks are equivalent after structural hashing.\0A\00", align 1
@.str.3 = private unnamed_addr constant [30 x i8] c"Renoding for CNF has failed.\0A\00", align 1
@.str.4 = private unnamed_addr constant [48 x i8] c"Networks are undecided (SAT solver timed out).\0A\00", align 1
@.str.5 = private unnamed_addr constant [40 x i8] c"Networks are NOT EQUIVALENT after SAT.\0A\00", align 1
@.str.6 = private unnamed_addr constant [36 x i8] c"Networks are equivalent after SAT.\0A\00", align 1

; Function Attrs: inlinehint nounwind uwtable
define internal i32 @Vec_PtrSize(ptr noundef %0) #4 {
  %2 = alloca ptr, align 8
  store ptr %0, ptr %2, align 8, !tbaa !32
  %3 = load ptr, ptr %2, align 8, !tbaa !32
  %4 = getelementptr inbounds nuw %struct.Vec_Ptr_t_, ptr %3, i32 0, i32 1
  %5 = load i32, ptr %4, align 4, !tbaa !61
  ret i32 %5
}

; Function Attrs: inlinehint nounwind uwtable
define internal i32 @Abc_NtkCiNum(ptr noundef %0) #4 {
  %2 = alloca ptr, align 8
  store ptr %0, ptr %2, align 8, !tbaa !3
  %3 = load ptr, ptr %2, align 8, !tbaa !3
  %4 = getelementptr inbounds nuw %struct.Abc_Ntk_t_, ptr %3, i32 0, i32 8
  %5 = load ptr, ptr %4, align 8, !tbaa !89
  %6 = call i32 @Vec_PtrSize(ptr noundef %5)
  ret i32 %6
}

; Function Attrs: nounwind uwtable
define ptr @Abc_NtkVerifyGetCleanModel(ptr noundef %0, i32 noundef %1) #0 {
  %3 = alloca ptr, align 8
  %4 = alloca i32, align 4
  %5 = alloca ptr, align 8
  store ptr %0, ptr %3, align 8, !tbaa !3
  store i32 %1, ptr %4, align 4, !tbaa !8
  call void @llvm.lifetime.start.p0(i64 8, ptr %5) #10
  %6 = load ptr, ptr %3, align 8, !tbaa !3
  %7 = call i32 @Abc_NtkCiNum(ptr noundef %6)
  %8 = load i32, ptr %4, align 4, !tbaa !8
  %9 = mul nsw i32 %7, %8
  %10 = sext i32 %9 to i64
  %11 = mul i64 4, %10
  %12 = call noalias ptr @malloc(i64 noundef %11) #11
  store ptr %12, ptr %5, align 8, !tbaa !26
  %13 = load ptr, ptr %5, align 8, !tbaa !26
  %14 = load ptr, ptr %3, align 8, !tbaa !3
  %15 = call i32 @Abc_NtkCiNum(ptr noundef %14)
  %16 = sext i32 %15 to i64
  %17 = mul i64 4, %16
  %18 = load i32, ptr %4, align 4, !tbaa !8
  %19 = sext i32 %18 to i64
  %20 = mul i64 %17, %19
  call void @llvm.memset.p0.i64(ptr align 4 %13, i8 0, i64 %20, i1 false)
  %21 = load ptr, ptr %5, align 8, !tbaa !26
  call void @llvm.lifetime.end.p0(i64 8, ptr %5) #10
  ret ptr %21
}

; Function Attrs: nounwind uwtable
define void @Abc_NtkCecSat(ptr noundef %0, ptr noundef %1, i32 noundef %2, i32 noundef %3) #0 {
  %5 = alloca ptr, align 8
  %6 = alloca ptr, align 8
  %7 = alloca i32, align 4
  %8 = alloca i32, align 4
  %9 = alloca ptr, align 8
  %10 = alloca ptr, align 8
  %11 = alloca i32, align 4
  %12 = alloca i32, align 4
  store ptr %0, ptr %5, align 8, !tbaa !3
  store ptr %1, ptr %6, align 8, !tbaa !3
  store i32 %2, ptr %7, align 4, !tbaa !8
  store i32 %3, ptr %8, align 4, !tbaa !8
  call void @llvm.lifetime.start.p0(i64 8, ptr %9) #10
  call void @llvm.lifetime.start.p0(i64 8, ptr %10) #10
  call void @llvm.lifetime.start.p0(i64 4, ptr %11) #10
  %13 = load ptr, ptr %5, align 8, !tbaa !3
  %14 = load ptr, ptr %6, align 8, !tbaa !3
  %15 = call ptr @Abc_NtkMiter(ptr noundef %13, ptr noundef %14, i32 noundef 1, i32 noundef 0, i32 noundef 0, i32 noundef 0)
  store ptr %15, ptr %9, align 8, !tbaa !3
  %16 = load ptr, ptr %9, align 8, !tbaa !3
  %17 = icmp eq ptr %16, null
  br i1 %17, label %18, label %20

18:                                               ; preds = %4
  %19 = call i32 (ptr, ...) @printf(ptr noundef @.str)
  store i32 1, ptr %12, align 4
  br label %107

20:                                               ; preds = %4
  %21 = load ptr, ptr %9, align 8, !tbaa !3
  %22 = call i32 @Abc_NtkMiterIsConstant(ptr noundef %21)
  store i32 %22, ptr %11, align 4, !tbaa !8
  %23 = load i32, ptr %11, align 4, !tbaa !8
  %24 = icmp eq i32 %23, 0
  br i1 %24, label %25, label %49

25:                                               ; preds = %20
  %26 = call i32 (ptr, ...) @printf(ptr noundef @.str.1)
  %27 = load ptr, ptr %9, align 8, !tbaa !3
  %28 = call ptr @Abc_NtkVerifyGetCleanModel(ptr noundef %27, i32 noundef 1)
  %29 = load ptr, ptr %9, align 8, !tbaa !3
  %30 = getelementptr inbounds nuw %struct.Abc_Ntk_t_, ptr %29, i32 0, i32 37
  store ptr %28, ptr %30, align 8, !tbaa !10
  %31 = load ptr, ptr %5, align 8, !tbaa !3
  %32 = load ptr, ptr %6, align 8, !tbaa !3
  %33 = load ptr, ptr %9, align 8, !tbaa !3
  %34 = getelementptr inbounds nuw %struct.Abc_Ntk_t_, ptr %33, i32 0, i32 37
  %35 = load ptr, ptr %34, align 8, !tbaa !10
  call void @Abc_NtkVerifyReportError(ptr noundef %31, ptr noundef %32, ptr noundef %35)
  %36 = load ptr, ptr %9, align 8, !tbaa !3
  %37 = getelementptr inbounds nuw %struct.Abc_Ntk_t_, ptr %36, i32 0, i32 37
  %38 = load ptr, ptr %37, align 8, !tbaa !10
  %39 = icmp ne ptr %38, null
  br i1 %39, label %40, label %46

40:                                               ; preds = %25
  %41 = load ptr, ptr %9, align 8, !tbaa !3
  %42 = getelementptr inbounds nuw %struct.Abc_Ntk_t_, ptr %41, i32 0, i32 37
  %43 = load ptr, ptr %42, align 8, !tbaa !10
  call void @free(ptr noundef %43) #10
  %44 = load ptr, ptr %9, align 8, !tbaa !3
  %45 = getelementptr inbounds nuw %struct.Abc_Ntk_t_, ptr %44, i32 0, i32 37
  store ptr null, ptr %45, align 8, !tbaa !10
  br label %47

46:                                               ; preds = %25
  br label %47

47:                                               ; preds = %46, %40
  %48 = load ptr, ptr %9, align 8, !tbaa !3
  call void @Abc_NtkDelete(ptr noundef %48)
  store i32 1, ptr %12, align 4
  br label %107

49:                                               ; preds = %20
  %50 = load i32, ptr %11, align 4, !tbaa !8
  %51 = icmp eq i32 %50, 1
  br i1 %51, label %52, label %55

52:                                               ; preds = %49
  %53 = load ptr, ptr %9, align 8, !tbaa !3
  call void @Abc_NtkDelete(ptr noundef %53)
  %54 = call i32 (ptr, ...) @printf(ptr noundef @.str.2)
  store i32 1, ptr %12, align 4
  br label %107

55:                                               ; preds = %49
  %56 = load ptr, ptr %9, align 8, !tbaa !3
  %57 = call ptr @Abc_NtkMulti(ptr noundef %56, i32 noundef 0, i32 noundef 100, i32 noundef 1, i32 noundef 0, i32 noundef 0, i32 noundef 0)
  store ptr %57, ptr %10, align 8, !tbaa !3
  %58 = load ptr, ptr %9, align 8, !tbaa !3
  call void @Abc_NtkDelete(ptr noundef %58)
  %59 = load ptr, ptr %10, align 8, !tbaa !3
  %60 = icmp eq ptr %59, null
  br i1 %60, label %61, label %63

61:                                               ; preds = %55
  %62 = call i32 (ptr, ...) @printf(ptr noundef @.str.3)
  store i32 1, ptr %12, align 4
  br label %107

63:                                               ; preds = %55
  %64 = load ptr, ptr %10, align 8, !tbaa !3
  %65 = load i32, ptr %7, align 4, !tbaa !8
  %66 = sext i32 %65 to i64
  %67 = load i32, ptr %8, align 4, !tbaa !8
  %68 = sext i32 %67 to i64
  %69 = call i32 @Abc_NtkMiterSat(ptr noundef %64, i64 noundef %66, i64 noundef %68, i32 noundef 0, ptr noundef null, ptr noundef null)
  store i32 %69, ptr %11, align 4, !tbaa !8
  %70 = load i32, ptr %11, align 4, !tbaa !8
  %71 = icmp eq i32 %70, -1
  br i1 %71, label %72, label %74

72:                                               ; preds = %63
  %73 = call i32 (ptr, ...) @printf(ptr noundef @.str.4)
  br label %82

74:                                               ; preds = %63
  %75 = load i32, ptr %11, align 4, !tbaa !8
  %76 = icmp eq i32 %75, 0
  br i1 %76, label %77, label %79

77:                                               ; preds = %74
  %78 = call i32 (ptr, ...) @printf(ptr noundef @.str.5)
  br label %81

79:                                               ; preds = %74
  %80 = call i32 (ptr, ...) @printf(ptr noundef @.str.6)
  br label %81

81:                                               ; preds = %79, %77
  br label %82

82:                                               ; preds = %81, %72
  %83 = load ptr, ptr %10, align 8, !tbaa !3
  %84 = getelementptr inbounds nuw %struct.Abc_Ntk_t_, ptr %83, i32 0, i32 37
  %85 = load ptr, ptr %84, align 8, !tbaa !10
  %86 = icmp ne ptr %85, null
  br i1 %86, label %87, label %93

87:                                               ; preds = %82
  %88 = load ptr, ptr %5, align 8, !tbaa !3
  %89 = load ptr, ptr %6, align 8, !tbaa !3
  %90 = load ptr, ptr %10, align 8, !tbaa !3
  %91 = getelementptr inbounds nuw %struct.Abc_Ntk_t_, ptr %90, i32 0, i32 37
  %92 = load ptr, ptr %91, align 8, !tbaa !10
  call void @Abc_NtkVerifyReportError(ptr noundef %88, ptr noundef %89, ptr noundef %92)
  br label %93

93:                                               ; preds = %87, %82
  %94 = load ptr, ptr %10, align 8, !tbaa !3
  %95 = getelementptr inbounds nuw %struct.Abc_Ntk_t_, ptr %94, i32 0, i32 37
  %96 = load ptr, ptr %95, align 8, !tbaa !10
  %97 = icmp ne ptr %96, null
  br i1 %97, label %98, label %104

98:                                               ; preds = %93
  %99 = load ptr, ptr %10, align 8, !tbaa !3
  %100 = getelementptr inbounds nuw %struct.Abc_Ntk_t_, ptr %99, i32 0, i32 37
  %101 = load ptr, ptr %100, align 8, !tbaa !10
  call void @free(ptr noundef %101) #10
  %102 = load ptr, ptr %10, align 8, !tbaa !3
  %103 = getelementptr inbounds nuw %struct.Abc_Ntk_t_, ptr %102, i32 0, i32 37
  store ptr null, ptr %103, align 8, !tbaa !10
  br label %105

104:                                              ; preds = %93
  br label %105

105:                                              ; preds = %104, %98
  %106 = load ptr, ptr %10, align 8, !tbaa !3
  call void @Abc_NtkDelete(ptr noundef %106)
  store i32 0, ptr %12, align 4
  br label %107

107:                                              ; preds = %105, %61, %52, %47, %18
  call void @llvm.lifetime.end.p0(i64 4, ptr %11) #10
  call void @llvm.lifetime.end.p0(i64 8, ptr %10) #10
  call void @llvm.lifetime.end.p0(i64 8, ptr %9) #10
  %108 = load i32, ptr %12, align 4
  switch i32 %108, label %110 [
    i32 0, label %109
    i32 1, label %109
  ]

109:                                              ; preds = %107, %107
  ret void

110:                                              ; preds = %107
  unreachable
}