; Function Attrs: nounwind uwtable
define void @Abc_NtkCecSat(ptr noundef %0, ptr noundef %1, i32 noundef %2, i32 noundef %3) local_unnamed_addr #0 {
  %5 = tail call ptr @Abc_NtkMiter(ptr noundef %0, ptr noundef %1, i32 noundef 1, i32 noundef 0, i32 noundef 0, i32 noundef 0) #15
  %6 = icmp eq ptr %5, null
  br i1 %6, label %7, label %8

7:                                                ; preds = %4
  %puts44 = tail call i32 @puts(ptr nonnull dereferenceable(1) @str.44)
  br label %32

8:                                                ; preds = %4
  %9 = tail call i32 @Abc_NtkMiterIsConstant(ptr noundef nonnull %5) #15
  switch i32 %9, label %20 [
    i32 0, label %10
    i32 1, label %19
  ]

10:                                               ; preds = %8
  %puts42 = tail call i32 @puts(ptr nonnull dereferenceable(1) @str.43)
  %11 = getelementptr i8, ptr %5, i64 56
  %.val.i = load ptr, ptr %11, align 8, !tbaa !3
  %12 = getelementptr i8, ptr %.val.i, i64 4
  %.val.val.i = load i32, ptr %12, align 4, !tbaa !24
  %13 = sext i32 %.val.val.i to i64
  %14 = shl nsw i64 %13, 2
  %calloc = tail call ptr @calloc(i64 1, i64 %14)
  %15 = getelementptr inbounds nuw i8, ptr %5, i64 304
  store ptr %calloc, ptr %15, align 8, !tbaa !26
  tail call fastcc void @Abc_NtkVerifyReportError(ptr noundef %0, ptr noundef %1, ptr noundef %calloc)
  %16 = load ptr, ptr %15, align 8, !tbaa !26
  %.not43 = icmp eq ptr %16, null
  br i1 %.not43, label %18, label %17

17:                                               ; preds = %10
  tail call void @free(ptr noundef nonnull %16) #15
  store ptr null, ptr %15, align 8, !tbaa !26
  br label %18

18:                                               ; preds = %10, %17
  tail call void @Abc_NtkDelete(ptr noundef nonnull %5) #15
  br label %32

19:                                               ; preds = %8
  tail call void @Abc_NtkDelete(ptr noundef nonnull %5) #15
  %puts41 = tail call i32 @puts(ptr nonnull dereferenceable(1) @str.42)
  br label %32

20:                                               ; preds = %8
  %21 = tail call ptr @Abc_NtkMulti(ptr noundef nonnull %5, i32 noundef 0, i32 noundef 100, i32 noundef 1, i32 noundef 0, i32 noundef 0, i32 noundef 0) #15
  tail call void @Abc_NtkDelete(ptr noundef nonnull %5) #15
  %22 = icmp eq ptr %21, null
  br i1 %22, label %23, label %24

23:                                               ; preds = %20
  %puts40 = tail call i32 @puts(ptr nonnull dereferenceable(1) @str.29)
  br label %32

24:                                               ; preds = %20
  %25 = sext i32 %2 to i64
  %26 = sext i32 %3 to i64
  %27 = tail call i32 @Abc_NtkMiterSat(ptr noundef nonnull %21, i64 noundef %25, i64 noundef %26, i32 noundef 0, ptr noundef null, ptr noundef null) #15
  %switch.selectcmp = icmp eq i32 %27, 0
  %switch.select = select i1 %switch.selectcmp, ptr @str.27, ptr @str.26
  %switch.selectcmp46 = icmp eq i32 %27, -1
  %switch.select47 = select i1 %switch.selectcmp46, ptr @str.28, ptr %switch.select
  %puts37 = tail call i32 @puts(ptr nonnull dereferenceable(1) %switch.select47)
  %28 = getelementptr inbounds nuw i8, ptr %21, i64 304
  %29 = load ptr, ptr %28, align 8, !tbaa !26
  %.not = icmp eq ptr %29, null
  br i1 %.not, label %.thread, label %30

30:                                               ; preds = %24
  tail call fastcc void @Abc_NtkVerifyReportError(ptr noundef %0, ptr noundef %1, ptr noundef nonnull %29)
  %.pr = load ptr, ptr %28, align 8, !tbaa !26
  %.not39 = icmp eq ptr %.pr, null
  br i1 %.not39, label %.thread, label %31

31:                                               ; preds = %30
  tail call void @free(ptr noundef nonnull %.pr) #15
  store ptr null, ptr %28, align 8, !tbaa !26
  br label %.thread

.thread:                                          ; preds = %24, %30, %31
  tail call void @Abc_NtkDelete(ptr noundef nonnull %21) #15
  br label %32

32:                                               ; preds = %.thread, %23, %19, %18, %7
  ret void
}